target datalayout = "e-m:e-p270:32:32-p271:32:32-p272:64:64-i64:64-i128:128-f80:128-n8:16:32:64-S128"
target triple = "x86_64-pc-linux-gnu"

; Function Attrs: nounwind uwtable
define internal i32 @show_reference(ptr noundef %0, ptr noundef %1, ptr noundef %2, i32 noundef %3, ptr noundef %4) #0 {
  %6 = alloca i32, align 4
  %7 = alloca ptr, align 8
  %8 = alloca ptr, align 8
  %9 = alloca ptr, align 8
  %10 = alloca i32, align 4
  %11 = alloca ptr, align 8
  store ptr %0, ptr %7, align 8, !tbaa !11
  store ptr %1, ptr %8, align 8, !tbaa !11
  store ptr %2, ptr %9, align 8, !tbaa !70
  store i32 %3, ptr %10, align 4, !tbaa !4
  store ptr %4, ptr %11, align 8, !tbaa !97
  %12 = load ptr, ptr %7, align 8, !tbaa !11
  %13 = call i32 @ref_excluded(ptr noundef @ref_excludes, ptr noundef %12)
  %14 = icmp ne i32 %13, 0
  br i1 %14, label %15, label %16

15:                                               ; preds = %5
  store i32 0, ptr %6, align 4
  br label %19

16:                                               ; preds = %5
  %17 = load ptr, ptr %9, align 8, !tbaa !70
  %18 = load ptr, ptr %7, align 8, !tbaa !11
  call void @show_rev(i32 noundef 0, ptr noundef %17, ptr noundef %18)
  store i32 0, ptr %6, align 4
  br label %19

19:                                               ; preds = %16, %15
  %20 = load i32, ptr %6, align 4
  ret i32 %20
}