; Function Attrs: nounwind uwtable
define internal noundef i32 @show_reference(ptr noundef %0, ptr readnone captures(none) %1, ptr noundef %2, i32 %3, ptr readnone captures(none) %4) #0 {
  %6 = tail call i32 @ref_excluded(ptr noundef nonnull @ref_excludes, ptr noundef %0) #19
  %.not = icmp eq i32 %6, 0
  br i1 %.not, label %7, label %8

7:                                                ; preds = %5
  tail call fastcc void @show_rev(i32 noundef 0, ptr noundef %2, ptr noundef %0)
  br label %8

8:                                                ; preds = %5, %7
  ret i32 0
}